target datalayout = "e-m:e-p270:32:32-p271:32:32-p272:64:64-i64:64-i128:128-f80:128-n8:16:32:64-S128"
target triple = "x86_64-pc-linux-gnu"

%struct.VP8LBitReader = type { i64, ptr, i64, i64, i32, i32 }

; Function Attrs: nounwind uwtable
define hidden void @VP8LInitBitReader(ptr noundef %0, ptr noundef %1, i64 noundef %2) #0 {
  %4 = alloca ptr, align 8
  %5 = alloca ptr, align 8
  %6 = alloca i64, align 8
  %7 = alloca i64, align 8
  %8 = alloca i64, align 8
  store ptr %0, ptr %4, align 8
  store ptr %1, ptr %5, align 8
  store i64 %2, ptr %6, align 8
  store i64 0, ptr %8, align 8
  %9 = load i64, ptr %6, align 8
  %10 = load ptr, ptr %4, align 8
  %11 = getelementptr inbounds %struct.VP8LBitReader, ptr %10, i32 0, i32 2
  store i64 %9, ptr %11, align 8
  %12 = load ptr, ptr %4, align 8
  %13 = getelementptr inbounds %struct.VP8LBitReader, ptr %12, i32 0, i32 0
  store i64 0, ptr %13, align 8
  %14 = load ptr, ptr %4, align 8
  %15 = getelementptr inbounds %struct.VP8LBitReader, ptr %14, i32 0, i32 4
  store i32 0, ptr %15, align 8
  %16 = load ptr, ptr %4, align 8
  %17 = getelementptr inbounds %struct.VP8LBitReader, ptr %16, i32 0, i32 5
  store i32 0, ptr %17, align 4
  %18 = load i64, ptr %6, align 8
  %19 = icmp ugt i64 %18, 8
  br i1 %19, label %20, label %21

20:                                               ; preds = %3
  store i64 8, ptr %6, align 8
  br label %21

21:                                               ; preds = %20, %3
  store i64 0, ptr %7, align 8
  br label %22

22:                                               ; preds = %37, %21
  %23 = load i64, ptr %7, align 8
  %24 = load i64, ptr %6, align 8
  %25 = icmp ult i64 %23, %24
  br i1 %25, label %26, label %40

26:                                               ; preds = %22
  %27 = load ptr, ptr %5, align 8
  %28 = load i64, ptr %7, align 8
  %29 = getelementptr inbounds i8, ptr %27, i64 %28
  %30 = load i8, ptr %29, align 1
  %31 = zext i8 %30 to i64
  %32 = load i64, ptr %7, align 8
  %33 = mul i64 8, %32
  %34 = shl i64 %31, %33
  %35 = load i64, ptr %8, align 8
  %36 = or i64 %35, %34
  store i64 %36, ptr %8, align 8
  br label %37

37:                                               ; preds = %26
  %38 = load i64, ptr %7, align 8
  %39 = add i64 %38, 1
  store i64 %39, ptr %7, align 8
  br label %22, !llvm.loop !6

40:                                               ; preds = %22
  %41 = load i64, ptr %8, align 8
  %42 = load ptr, ptr %4, align 8
  %43 = getelementptr inbounds %struct.VP8LBitReader, ptr %42, i32 0, i32 0
  store i64 %41, ptr %43, align 8
  %44 = load i64, ptr %6, align 8
  %45 = load ptr, ptr %4, align 8
  %46 = getelementptr inbounds %struct.VP8LBitReader, ptr %45, i32 0, i32 3
  store i64 %44, ptr %46, align 8
  %47 = load ptr, ptr %5, align 8
  %48 = load ptr, ptr %4, align 8
  %49 = getelementptr inbounds %struct.VP8LBitReader, ptr %48, i32 0, i32 1
  store ptr %47, ptr %49, align 8
  ret void
}