; Function Attrs: nofree norecurse nosync nounwind memory(argmem: readwrite) uwtable
define hidden void @VP8LInitBitReader(ptr nocapture noundef writeonly %0, ptr noundef %1, i64 noundef %2) local_unnamed_addr #5 {
  %4 = getelementptr inbounds i8, ptr %0, i64 16
  store i64 %2, ptr %4, align 8
  store i64 0, ptr %0, align 8
  %5 = getelementptr inbounds i8, ptr %0, i64 32
  store i32 0, ptr %5, align 8
  %6 = getelementptr inbounds i8, ptr %0, i64 36
  store i32 0, ptr %6, align 4
  %spec.store.select = tail call i64 @llvm.umin.i64(i64 %2, i64 8)
  %.not = icmp eq i64 %2, 0
  br i1 %.not, label %._crit_edge, label %.lr.ph

.lr.ph:                                           ; preds = %3, %.lr.ph
  %.020 = phi i64 [ %12, %.lr.ph ], [ 0, %3 ]
  %.01819 = phi i64 [ %13, %.lr.ph ], [ 0, %3 ]
  %7 = getelementptr inbounds i8, ptr %1, i64 %.01819
  %8 = load i8, ptr %7, align 1
  %9 = zext i8 %8 to i64
  %10 = shl i64 %.01819, 3
  %11 = shl i64 %9, %10
  %12 = or i64 %11, %.020
  %13 = add nuw nsw i64 %.01819, 1
  %exitcond.not = icmp eq i64 %13, %spec.store.select
  br i1 %exitcond.not, label %._crit_edge, label %.lr.ph, !llvm.loop !30

._crit_edge:                                      ; preds = %.lr.ph, %3
  %.0.lcssa = phi i64 [ 0, %3 ], [ %12, %.lr.ph ]
  store i64 %.0.lcssa, ptr %0, align 8
  %14 = getelementptr inbounds i8, ptr %0, i64 24
  store i64 %spec.store.select, ptr %14, align 8
  %15 = getelementptr inbounds i8, ptr %0, i64 8
  store ptr %1, ptr %15, align 8
  ret void
}